target datalayout = "e-m:e-p270:32:32-p271:32:32-p272:64:64-i64:64-i128:128-f80:128-n8:16:32:64-S128"
target triple = "x86_64-pc-linux-gnu"

%struct.ASPK = type { i32, i32, [58 x i32], [4 x %struct.DICT_HELPER], ptr, ptr, ptr, [4 x [24 x i32]], [4 x [24 x i32]], i32, [758 x i8], [19 x i8] }
%struct.DICT_HELPER = type { ptr, ptr, i32 }

; Function Attrs: nounwind uwtable
define internal zeroext i8 @build_decrypt_array(ptr noundef %0, ptr noundef %1, i8 noundef zeroext %2) #0 {
  %4 = alloca i8, align 1
  %5 = alloca ptr, align 8
  %6 = alloca ptr, align 8
  %7 = alloca i8, align 1
  %8 = alloca i32, align 4
  %9 = alloca i32, align 4
  %10 = alloca i32, align 4
  %11 = alloca i32, align 4
  %12 = alloca [18 x i32], align 16
  %13 = alloca [18 x i32], align 16
  %14 = alloca ptr, align 8
  %15 = alloca ptr, align 8
  %16 = alloca i32, align 4
  store ptr %0, ptr %5, align 8
  store ptr %1, ptr %6, align 8
  store i8 %2, ptr %7, align 1
  store i32 0, ptr %8, align 4
  store i32 23, ptr %9, align 4
  store i32 0, ptr %11, align 4
  %17 = load ptr, ptr %5, align 8
  %18 = getelementptr inbounds %struct.ASPK, ptr %17, i32 0, i32 7
  %19 = load i8, ptr %7, align 1
  %20 = zext i8 %19 to i64
  %21 = getelementptr inbounds [4 x [24 x i32]], ptr %18, i64 0, i64 %20
  %22 = getelementptr inbounds [24 x i32], ptr %21, i64 0, i64 0
  store ptr %22, ptr %14, align 8
  %23 = load ptr, ptr %5, align 8
  %24 = getelementptr inbounds %struct.ASPK, ptr %23, i32 0, i32 8
  %25 = load i8, ptr %7, align 1
  %26 = zext i8 %25 to i64
  %27 = getelementptr inbounds [4 x [24 x i32]], ptr %24, i64 0, i64 %26
  %28 = getelementptr inbounds [24 x i32], ptr %27, i64 0, i64 0
  store ptr %28, ptr %15, align 8
  %29 = getelementptr inbounds [18 x i32], ptr %12, i64 0, i64 0
  call void @llvm.memset.p0.i64(ptr align 16 %29, i8 0, i64 72, i1 false)
  %30 = getelementptr inbounds [18 x i32], ptr %13, i64 0, i64 0
  call void @llvm.memset.p0.i64(ptr align 16 %30, i8 0, i64 72, i1 false)
  store i32 0, ptr %10, align 4
  br label %31

31:                                               ; preds = %60, %3
  %32 = load i32, ptr %10, align 4
  %33 = load ptr, ptr %5, align 8
  %34 = getelementptr inbounds %struct.ASPK, ptr %33, i32 0, i32 3
  %35 = load i8, ptr %7, align 1
  %36 = zext i8 %35 to i64
  %37 = getelementptr inbounds [4 x %struct.DICT_HELPER], ptr %34, i64 0, i64 %36
  %38 = getelementptr inbounds %struct.DICT_HELPER, ptr %37, i32 0, i32 2
  %39 = load i32, ptr %38, align 8
  %40 = icmp ult i32 %32, %39
  br i1 %40, label %41, label %63

41:                                               ; preds = %31
  %42 = load ptr, ptr %6, align 8
  %43 = load i32, ptr %10, align 4
  %44 = zext i32 %43 to i64
  %45 = getelementptr inbounds i8, ptr %42, i64 %44
  %46 = load i8, ptr %45, align 1
  %47 = zext i8 %46 to i32
  %48 = icmp sgt i32 %47, 17
  br i1 %48, label %49, label %50

49:                                               ; preds = %41
  store i8 0, ptr %4, align 1
  br label %340

50:                                               ; preds = %41
  %51 = load ptr, ptr %6, align 8
  %52 = load i32, ptr %10, align 4
  %53 = zext i32 %52 to i64
  %54 = getelementptr inbounds i8, ptr %51, i64 %53
  %55 = load i8, ptr %54, align 1
  %56 = zext i8 %55 to i64
  %57 = getelementptr inbounds [18 x i32], ptr %12, i64 0, i64 %56
  %58 = load i32, ptr %57, align 4
  %59 = add i32 %58, 1
  store i32 %59, ptr %57, align 4
  br label %60

60:                                               ; preds = %50
  %61 = load i32, ptr %10, align 4
  %62 = add i32 %61, 1
  store i32 %62, ptr %10, align 4
  br label %31

63:                                               ; preds = %31
  %64 = load ptr, ptr %14, align 8
  %65 = getelementptr inbounds i32, ptr %64, i64 0
  store i32 0, ptr %65, align 4
  %66 = load ptr, ptr %15, align 8
  %67 = getelementptr inbounds i32, ptr %66, i64 0
  store i32 0, ptr %67, align 4
  store i32 0, ptr %10, align 4
  br label %68

68:                                               ; preds = %253, %63
  %69 = load i32, ptr %9, align 4
  %70 = icmp uge i32 %69, 9
  br i1 %70, label %71, label %258

71:                                               ; preds = %68
  %72 = load i32, ptr %10, align 4
  %73 = add i32 %72, 1
  %74 = zext i32 %73 to i64
  %75 = getelementptr inbounds [18 x i32], ptr %12, i64 0, i64 %74
  %76 = load i32, ptr %75, align 4
  %77 = load i32, ptr %9, align 4
  %78 = shl i32 %76, %77
  %79 = load i32, ptr %8, align 4
  %80 = add i32 %79, %78
  store i32 %80, ptr %8, align 4
  %81 = load i32, ptr %8, align 4
  %82 = icmp ugt i32 %81, 16777216
  br i1 %82, label %83, label %84

83:                                               ; preds = %71
  store i8 0, ptr %4, align 1
  br label %340

84:                                               ; preds = %71
  %85 = load i32, ptr %8, align 4
  %86 = load ptr, ptr %14, align 8
  %87 = load i32, ptr %10, align 4
  %88 = add i32 %87, 1
  %89 = zext i32 %88 to i64
  %90 = getelementptr inbounds i32, ptr %86, i64 %89
  store i32 %85, ptr %90, align 4
  %91 = load i32, ptr %10, align 4
  %92 = zext i32 %91 to i64
  %93 = getelementptr inbounds [18 x i32], ptr %12, i64 0, i64 %92
  %94 = load i32, ptr %93, align 4
  %95 = load ptr, ptr %15, align 8
  %96 = load i32, ptr %10, align 4
  %97 = zext i32 %96 to i64
  %98 = getelementptr inbounds i32, ptr %95, i64 %97
  %99 = load i32, ptr %98, align 4
  %100 = add i32 %94, %99
  %101 = load i32, ptr %10, align 4
  %102 = add i32 %101, 1
  %103 = zext i32 %102 to i64
  %104 = getelementptr inbounds [18 x i32], ptr %13, i64 0, i64 %103
  store i32 %100, ptr %104, align 4
  %105 = load ptr, ptr %15, align 8
  %106 = load i32, ptr %10, align 4
  %107 = add i32 %106, 1
  %108 = zext i32 %107 to i64
  %109 = getelementptr inbounds i32, ptr %105, i64 %108
  store i32 %100, ptr %109, align 4
  %110 = load i32, ptr %9, align 4
  %111 = icmp uge i32 %110, 16
  br i1 %111, label %112, label %253

112:                                              ; preds = %84
  %113 = load i32, ptr %11, align 4
  store i32 %113, ptr %16, align 4
  %114 = load ptr, ptr %14, align 8
  %115 = load i32, ptr %10, align 4
  %116 = add i32 %115, 1
  %117 = zext i32 %116 to i64
  %118 = getelementptr inbounds i32, ptr %114, i64 %117
  %119 = load i32, ptr %118, align 4
  %120 = lshr i32 %119, 16
  store i32 %120, ptr %11, align 4
  %121 = load i32, ptr %11, align 4
  %122 = load i32, ptr %16, align 4
  %123 = sub i32 %121, %122
  %124 = icmp ne i32 %123, 0
  br i1 %124, label %125, label %252

125:                                              ; preds = %112
  %126 = load i32, ptr %11, align 4
  %127 = load i32, ptr %16, align 4
  %128 = sub i32 %126, %127
  %129 = zext i32 %128 to i64
  %130 = icmp ugt i64 %129, 0
  br i1 %130, label %131, label %233

131:                                              ; preds = %125
  %132 = load i32, ptr %11, align 4
  %133 = load i32, ptr %16, align 4
  %134 = sub i32 %132, %133
  %135 = zext i32 %134 to i64
  %136 = icmp ule i64 %135, 256
  br i1 %136, label %137, label %233

137:                                              ; preds = %131
  %138 = load ptr, ptr %5, align 8
  %139 = getelementptr inbounds %struct.ASPK, ptr %138, i32 0, i32 3
  %140 = load i8, ptr %7, align 1
  %141 = zext i8 %140 to i64
  %142 = getelementptr inbounds [4 x %struct.DICT_HELPER], ptr %139, i64 0, i64 %141
  %143 = getelementptr inbounds %struct.DICT_HELPER, ptr %142, i32 0, i32 1
  %144 = load ptr, ptr %143, align 8
  %145 = load i32, ptr %16, align 4
  %146 = zext i32 %145 to i64
  %147 = getelementptr inbounds i8, ptr %144, i64 %146
  %148 = ptrtoint ptr %147 to i64
  %149 = load ptr, ptr %5, align 8
  %150 = getelementptr inbounds %struct.ASPK, ptr %149, i32 0, i32 3
  %151 = load i8, ptr %7, align 1
  %152 = zext i8 %151 to i64
  %153 = getelementptr inbounds [4 x %struct.DICT_HELPER], ptr %150, i64 0, i64 %152
  %154 = getelementptr inbounds %struct.DICT_HELPER, ptr %153, i32 0, i32 1
  %155 = load ptr, ptr %154, align 8
  %156 = ptrtoint ptr %155 to i64
  %157 = icmp uge i64 %148, %156
  br i1 %157, label %158, label %233

158:                                              ; preds = %137
  %159 = load ptr, ptr %5, align 8
  %160 = getelementptr inbounds %struct.ASPK, ptr %159, i32 0, i32 3
  %161 = load i8, ptr %7, align 1
  %162 = zext i8 %161 to i64
  %163 = getelementptr inbounds [4 x %struct.DICT_HELPER], ptr %160, i64 0, i64 %162
  %164 = getelementptr inbounds %struct.DICT_HELPER, ptr %163, i32 0, i32 1
  %165 = load ptr, ptr %164, align 8
  %166 = load i32, ptr %16, align 4
  %167 = zext i32 %166 to i64
  %168 = getelementptr inbounds i8, ptr %165, i64 %167
  %169 = ptrtoint ptr %168 to i64
  %170 = load i32, ptr %11, align 4
  %171 = load i32, ptr %16, align 4
  %172 = sub i32 %170, %171
  %173 = zext i32 %172 to i64
  %174 = add i64 %169, %173
  %175 = load ptr, ptr %5, align 8
  %176 = getelementptr inbounds %struct.ASPK, ptr %175, i32 0, i32 3
  %177 = load i8, ptr %7, align 1
  %178 = zext i8 %177 to i64
  %179 = getelementptr inbounds [4 x %struct.DICT_HELPER], ptr %176, i64 0, i64 %178
  %180 = getelementptr inbounds %struct.DICT_HELPER, ptr %179, i32 0, i32 1
  %181 = load ptr, ptr %180, align 8
  %182 = ptrtoint ptr %181 to i64
  %183 = add i64 %182, 256
  %184 = icmp ule i64 %174, %183
  br i1 %184, label %185, label %233

185:                                              ; preds = %158
  %186 = load ptr, ptr %5, align 8
  %187 = getelementptr inbounds %struct.ASPK, ptr %186, i32 0, i32 3
  %188 = load i8, ptr %7, align 1
  %189 = zext i8 %188 to i64
  %190 = getelementptr inbounds [4 x %struct.DICT_HELPER], ptr %187, i64 0, i64 %189
  %191 = getelementptr inbounds %struct.DICT_HELPER, ptr %190, i32 0, i32 1
  %192 = load ptr, ptr %191, align 8
  %193 = load i32, ptr %16, align 4
  %194 = zext i32 %193 to i64
  %195 = getelementptr inbounds i8, ptr %192, i64 %194
  %196 = ptrtoint ptr %195 to i64
  %197 = load i32, ptr %11, align 4
  %198 = load i32, ptr %16, align 4
  %199 = sub i32 %197, %198
  %200 = zext i32 %199 to i64
  %201 = add i64 %196, %200
  %202 = load ptr, ptr %5, align 8
  %203 = getelementptr inbounds %struct.ASPK, ptr %202, i32 0, i32 3
  %204 = load i8, ptr %7, align 1
  %205 = zext i8 %204 to i64
  %206 = getelementptr inbounds [4 x %struct.DICT_HELPER], ptr %203, i64 0, i64 %205
  %207 = getelementptr inbounds %struct.DICT_HELPER, ptr %206, i32 0, i32 1
  %208 = load ptr, ptr %207, align 8
  %209 = ptrtoint ptr %208 to i64
  %210 = icmp ugt i64 %201, %209
  br i1 %210, label %211, label %233

211:                                              ; preds = %185
  %212 = load ptr, ptr %5, align 8
  %213 = getelementptr inbounds %struct.ASPK, ptr %212, i32 0, i32 3
  %214 = load i8, ptr %7, align 1
  %215 = zext i8 %214 to i64
  %216 = getelementptr inbounds [4 x %struct.DICT_HELPER], ptr %213, i64 0, i64 %215
  %217 = getelementptr inbounds %struct.DICT_HELPER, ptr %216, i32 0, i32 1
  %218 = load ptr, ptr %217, align 8
  %219 = load i32, ptr %16, align 4
  %220 = zext i32 %219 to i64
  %221 = getelementptr inbounds i8, ptr %218, i64 %220
  %222 = ptrtoint ptr %221 to i64
  %223 = load ptr, ptr %5, align 8
  %224 = getelementptr inbounds %struct.ASPK, ptr %223, i32 0, i32 3
  %225 = load i8, ptr %7, align 1
  %226 = zext i8 %225 to i64
  %227 = getelementptr inbounds [4 x %struct.DICT_HELPER], ptr %224, i64 0, i64 %226
  %228 = getelementptr inbounds %struct.DICT_HELPER, ptr %227, i32 0, i32 1
  %229 = load ptr, ptr %228, align 8
  %230 = ptrtoint ptr %229 to i64
  %231 = add i64 %230, 256
  %232 = icmp ult i64 %222, %231
  br i1 %232, label %234, label %233

233:                                              ; preds = %211, %185, %158, %137, %131, %125
  store i8 0, ptr %4, align 1
  br label %340

234:                                              ; preds = %211
  %235 = load ptr, ptr %5, align 8
  %236 = getelementptr inbounds %struct.ASPK, ptr %235, i32 0, i32 3
  %237 = load i8, ptr %7, align 1
  %238 = zext i8 %237 to i64
  %239 = getelementptr inbounds [4 x %struct.DICT_HELPER], ptr %236, i64 0, i64 %238
  %240 = getelementptr inbounds %struct.DICT_HELPER, ptr %239, i32 0, i32 1
  %241 = load ptr, ptr %240, align 8
  %242 = load i32, ptr %16, align 4
  %243 = zext i32 %242 to i64
  %244 = getelementptr inbounds i8, ptr %241, i64 %243
  %245 = load i32, ptr %10, align 4
  %246 = add i32 %245, 1
  %247 = trunc i32 %246 to i8
  %248 = load i32, ptr %11, align 4
  %249 = load i32, ptr %16, align 4
  %250 = sub i32 %248, %249
  %251 = zext i32 %250 to i64
  call void @llvm.memset.p0.i64(ptr align 1 %244, i8 %247, i64 %251, i1 false)
  br label %252

252:                                              ; preds = %234, %112
  br label %253

253:                                              ; preds = %252, %84
  %254 = load i32, ptr %10, align 4
  %255 = add i32 %254, 1
  store i32 %255, ptr %10, align 4
  %256 = load i32, ptr %9, align 4
  %257 = add i32 %256, -1
  store i32 %257, ptr %9, align 4
  br label %68

258:                                              ; preds = %68
  %259 = load i32, ptr %8, align 4
  %260 = icmp ne i32 %259, 16777216
  br i1 %260, label %261, label %262

261:                                              ; preds = %258
  store i8 0, ptr %4, align 1
  br label %340

262:                                              ; preds = %258
  store i32 0, ptr %10, align 4
  store i32 0, ptr %10, align 4
  br label %263

263:                                              ; preds = %336, %262
  %264 = load i32, ptr %10, align 4
  %265 = load ptr, ptr %5, align 8
  %266 = getelementptr inbounds %struct.ASPK, ptr %265, i32 0, i32 3
  %267 = load i8, ptr %7, align 1
  %268 = zext i8 %267 to i64
  %269 = getelementptr inbounds [4 x %struct.DICT_HELPER], ptr %266, i64 0, i64 %268
  %270 = getelementptr inbounds %struct.DICT_HELPER, ptr %269, i32 0, i32 2
  %271 = load i32, ptr %270, align 8
  %272 = icmp ult i32 %264, %271
  br i1 %272, label %273, label %339

273:                                              ; preds = %263
  %274 = load ptr, ptr %6, align 8
  %275 = load i32, ptr %10, align 4
  %276 = zext i32 %275 to i64
  %277 = getelementptr inbounds i8, ptr %274, i64 %276
  %278 = load i8, ptr %277, align 1
  %279 = icmp ne i8 %278, 0
  br i1 %279, label %280, label %335

280:                                              ; preds = %273
  %281 = load ptr, ptr %6, align 8
  %282 = load i32, ptr %10, align 4
  %283 = zext i32 %282 to i64
  %284 = getelementptr inbounds i8, ptr %281, i64 %283
  %285 = load i8, ptr %284, align 1
  %286 = zext i8 %285 to i32
  %287 = icmp sgt i32 %286, 17
  br i1 %287, label %288, label %289

288:                                              ; preds = %280
  store i8 0, ptr %4, align 1
  br label %340

289:                                              ; preds = %280
  %290 = load ptr, ptr %6, align 8
  %291 = load i32, ptr %10, align 4
  %292 = zext i32 %291 to i64
  %293 = getelementptr inbounds i8, ptr %290, i64 %292
  %294 = load i8, ptr %293, align 1
  %295 = zext i8 %294 to i64
  %296 = getelementptr inbounds [18 x i32], ptr %13, i64 0, i64 %295
  %297 = load i32, ptr %296, align 4
  %298 = load ptr, ptr %5, align 8
  %299 = getelementptr inbounds %struct.ASPK, ptr %298, i32 0, i32 3
  %300 = load i8, ptr %7, align 1
  %301 = zext i8 %300 to i64
  %302 = getelementptr inbounds [4 x %struct.DICT_HELPER], ptr %299, i64 0, i64 %301
  %303 = getelementptr inbounds %struct.DICT_HELPER, ptr %302, i32 0, i32 2
  %304 = load i32, ptr %303, align 8
  %305 = icmp uge i32 %297, %304
  br i1 %305, label %306, label %307

306:                                              ; preds = %289
  store i8 0, ptr %4, align 1
  br label %340

307:                                              ; preds = %289
  %308 = load i32, ptr %10, align 4
  %309 = load ptr, ptr %5, align 8
  %310 = getelementptr inbounds %struct.ASPK, ptr %309, i32 0, i32 3
  %311 = load i8, ptr %7, align 1
  %312 = zext i8 %311 to i64
  %313 = getelementptr inbounds [4 x %struct.DICT_HELPER], ptr %310, i64 0, i64 %312
  %314 = getelementptr inbounds %struct.DICT_HELPER, ptr %313, i32 0, i32 0
  %315 = load ptr, ptr %314, align 8
  %316 = load ptr, ptr %6, align 8
  %317 = load i32, ptr %10, align 4
  %318 = zext i32 %317 to i64
  %319 = getelementptr inbounds i8, ptr %316, i64 %318
  %320 = load i8, ptr %319, align 1
  %321 = zext i8 %320 to i64
  %322 = getelementptr inbounds [18 x i32], ptr %13, i64 0, i64 %321
  %323 = load i32, ptr %322, align 4
  %324 = zext i32 %323 to i64
  %325 = getelementptr inbounds i32, ptr %315, i64 %324
  store i32 %308, ptr %325, align 4
  %326 = load ptr, ptr %6, align 8
  %327 = load i32, ptr %10, align 4
  %328 = zext i32 %327 to i64
  %329 = getelementptr inbounds i8, ptr %326, i64 %328
  %330 = load i8, ptr %329, align 1
  %331 = zext i8 %330 to i64
  %332 = getelementptr inbounds [18 x i32], ptr %13, i64 0, i64 %331
  %333 = load i32, ptr %332, align 4
  %334 = add i32 %333, 1
  store i32 %334, ptr %332, align 4
  br label %335

335:                                              ; preds = %307, %273
  br label %336

336:                                              ; preds = %335
  %337 = load i32, ptr %10, align 4
  %338 = add i32 %337, 1
  store i32 %338, ptr %10, align 4
  br label %263

339:                                              ; preds = %263
  store i8 1, ptr %4, align 1
  br label %340

340:                                              ; preds = %339, %306, %288, %261, %233, %83, %49
  %341 = load i8, ptr %4, align 1
  ret i8 %341
}