; Function Attrs: nofree norecurse nosync nounwind memory(write, argmem: readwrite, inaccessiblemem: none) uwtable
define internal fastcc noundef zeroext i8 @build_decrypt_array(ptr nocapture noundef %0, ptr nocapture noundef readonly %1, i8 noundef zeroext %2) unnamed_addr #7 {
  %4 = alloca [18 x i32], align 16
  %5 = alloca [18 x i32], align 16
  %6 = getelementptr inbounds i8, ptr %0, i64 360
  %7 = zext nneg i8 %2 to i64
  %8 = getelementptr inbounds [4 x [24 x i32]], ptr %6, i64 0, i64 %7
  %9 = getelementptr inbounds i8, ptr %0, i64 744
  %10 = getelementptr inbounds [4 x [24 x i32]], ptr %9, i64 0, i64 %7
  call void @llvm.memset.p0.i64(ptr noundef nonnull align 16 dereferenceable(72) %4, i8 0, i64 72, i1 false)
  call void @llvm.memset.p0.i64(ptr noundef nonnull align 16 dereferenceable(72) %5, i8 0, i64 72, i1 false)
  %11 = getelementptr inbounds i8, ptr %0, i64 240
  %12 = getelementptr inbounds [4 x %struct.DICT_HELPER], ptr %11, i64 0, i64 %7
  %13 = getelementptr inbounds i8, ptr %12, i64 16
  %14 = load i32, ptr %13, align 8
  %.not131 = icmp eq i32 %14, 0
  br i1 %.not131, label %._crit_edge, label %.lr.ph.preheader

.lr.ph.preheader:                                 ; preds = %3
  %wide.trip.count = zext i32 %14 to i64
  br label %.lr.ph

.lr.ph:                                           ; preds = %.lr.ph.preheader, %18
  %indvars.iv = phi i64 [ 0, %.lr.ph.preheader ], [ %indvars.iv.next, %18 ]
  %15 = getelementptr inbounds i8, ptr %1, i64 %indvars.iv
  %16 = load i8, ptr %15, align 1
  %17 = icmp ugt i8 %16, 17
  br i1 %17, label %.loopexit, label %18

18:                                               ; preds = %.lr.ph
  %19 = zext nneg i8 %16 to i64
  %20 = getelementptr inbounds [18 x i32], ptr %4, i64 0, i64 %19
  %21 = load i32, ptr %20, align 4
  %22 = add i32 %21, 1
  store i32 %22, ptr %20, align 4
  %indvars.iv.next = add nuw nsw i64 %indvars.iv, 1
  %exitcond.not = icmp eq i64 %indvars.iv.next, %wide.trip.count
  br i1 %exitcond.not, label %._crit_edge, label %.lr.ph

._crit_edge:                                      ; preds = %18, %3
  store i32 0, ptr %8, align 4
  store i32 0, ptr %10, align 4
  %23 = getelementptr inbounds i8, ptr %12, i64 8
  br label %24

24:                                               ; preds = %._crit_edge, %58
  %indvars.iv137 = phi i64 [ 0, %._crit_edge ], [ %indvars.iv.next138, %58 ]
  %.090123 = phi i32 [ 0, %._crit_edge ], [ %28, %58 ]
  %.091122 = phi i32 [ 23, %._crit_edge ], [ %59, %58 ]
  %.092121 = phi i32 [ 0, %._crit_edge ], [ %.1, %58 ]
  %indvars.iv.next138 = add nuw nsw i64 %indvars.iv137, 1
  %25 = getelementptr inbounds [18 x i32], ptr %4, i64 0, i64 %indvars.iv.next138
  %26 = load i32, ptr %25, align 4
  %27 = shl i32 %26, %.091122
  %28 = add i32 %27, %.090123
  %29 = icmp ugt i32 %28, 16777216
  br i1 %29, label %.loopexit, label %30

30:                                               ; preds = %24
  %31 = getelementptr inbounds i32, ptr %8, i64 %indvars.iv.next138
  store i32 %28, ptr %31, align 4
  %32 = getelementptr inbounds [18 x i32], ptr %4, i64 0, i64 %indvars.iv137
  %33 = load i32, ptr %32, align 4
  %34 = getelementptr inbounds i32, ptr %10, i64 %indvars.iv137
  %35 = load i32, ptr %34, align 4
  %36 = add i32 %35, %33
  %37 = getelementptr inbounds [18 x i32], ptr %5, i64 0, i64 %indvars.iv.next138
  store i32 %36, ptr %37, align 4
  %38 = getelementptr inbounds i32, ptr %10, i64 %indvars.iv.next138
  store i32 %36, ptr %38, align 4
  %39 = icmp ugt i32 %.091122, 15
  br i1 %39, label %40, label %58

40:                                               ; preds = %30
  %41 = lshr i32 %28, 16
  %.not107 = icmp eq i32 %41, %.092121
  br i1 %.not107, label %58, label %42

42:                                               ; preds = %40
  %43 = sub nsw i32 %41, %.092121
  %44 = zext i32 %43 to i64
  %45 = icmp ult i32 %43, 257
  br i1 %45, label %46, label %.loopexit

46:                                               ; preds = %42
  %47 = load ptr, ptr %23, align 8
  %48 = zext nneg i32 %.092121 to i64
  %49 = getelementptr inbounds i8, ptr %47, i64 %48
  %50 = ptrtoint ptr %49 to i64
  %51 = ptrtoint ptr %47 to i64
  %52 = add i64 %50, %44
  %53 = add i64 %51, 256
  %.not109 = icmp ule i64 %52, %53
  %54 = icmp ugt i64 %52, %51
  %or.cond = and i1 %.not109, %54
  %55 = icmp ugt i64 %53, %50
  %or.cond110 = and i1 %55, %or.cond
  br i1 %or.cond110, label %56, label %.loopexit

56:                                               ; preds = %46
  %57 = trunc nuw nsw i64 %indvars.iv.next138 to i8
  tail call void @llvm.memset.p0.i64(ptr align 1 %49, i8 %57, i64 %44, i1 false)
  br label %58

58:                                               ; preds = %40, %56, %30
  %.1 = phi i32 [ %41, %56 ], [ %.092121, %40 ], [ %.092121, %30 ]
  %59 = add nsw i32 %.091122, -1
  %exitcond140.not = icmp eq i64 %indvars.iv.next138, 15
  br i1 %exitcond140.not, label %60, label %24

60:                                               ; preds = %58
  %.not = icmp eq i32 %28, 16777216
  br i1 %.not, label %.preheader, label %.loopexit

.preheader:                                       ; preds = %60
  %61 = load i32, ptr %13, align 8
  %.not132 = icmp eq i32 %61, 0
  br i1 %.not132, label %.loopexit, label %.lr.ph125

.lr.ph125:                                        ; preds = %.preheader, %81
  %62 = phi i32 [ %82, %81 ], [ %61, %.preheader ]
  %indvars.iv141 = phi i64 [ %indvars.iv.next142, %81 ], [ 0, %.preheader ]
  %63 = getelementptr inbounds i8, ptr %1, i64 %indvars.iv141
  %64 = load i8, ptr %63, align 1
  %.not105 = icmp eq i8 %64, 0
  br i1 %.not105, label %81, label %65

65:                                               ; preds = %.lr.ph125
  %66 = icmp ugt i8 %64, 17
  br i1 %66, label %.loopexit, label %67

67:                                               ; preds = %65
  %68 = zext nneg i8 %64 to i64
  %69 = getelementptr inbounds [18 x i32], ptr %5, i64 0, i64 %68
  %70 = load i32, ptr %69, align 4
  %.not106 = icmp ult i32 %70, %62
  br i1 %.not106, label %71, label %.loopexit

71:                                               ; preds = %67
  %72 = load ptr, ptr %12, align 8
  %73 = zext i32 %70 to i64
  %74 = getelementptr inbounds i32, ptr %72, i64 %73
  %75 = trunc nuw i64 %indvars.iv141 to i32
  store i32 %75, ptr %74, align 4
  %76 = load i8, ptr %63, align 1
  %77 = zext i8 %76 to i64
  %78 = getelementptr inbounds [18 x i32], ptr %5, i64 0, i64 %77
  %79 = load i32, ptr %78, align 4
  %80 = add i32 %79, 1
  store i32 %80, ptr %78, align 4
  %.pre = load i32, ptr %13, align 8
  br label %81

81:                                               ; preds = %.lr.ph125, %71
  %82 = phi i32 [ %62, %.lr.ph125 ], [ %.pre, %71 ]
  %indvars.iv.next142 = add nuw nsw i64 %indvars.iv141, 1
  %83 = zext i32 %82 to i64
  %84 = icmp ult i64 %indvars.iv.next142, %83
  br i1 %84, label %.lr.ph125, label %.loopexit

.loopexit:                                        ; preds = %.lr.ph, %42, %46, %24, %65, %67, %81, %.preheader, %60
  %.0 = phi i8 [ 0, %60 ], [ 1, %.preheader ], [ 0, %65 ], [ 0, %67 ], [ 1, %81 ], [ 0, %24 ], [ 0, %46 ], [ 0, %42 ], [ 0, %.lr.ph ]
  ret i8 %.0
}